; Function Attrs: nounwind uwtable
define range(i32 0, 2) i32 @test_long_le(ptr noundef %0, i32 noundef %1, ptr noundef %2, ptr noundef %3, i64 noundef %4, i64 noundef %5) local_unnamed_addr #0 {
  %.not = icmp sgt i64 %4, %5
  br i1 %.not, label %7, label %8

7:                                                ; preds = %6
  tail call void (ptr, ptr, i32, ptr, ptr, ptr, ptr, ptr, ...) @test_fail_message(ptr poison, ptr noundef %0, i32 noundef %1, ptr noundef nonnull @.str.24, ptr noundef %2, ptr noundef %3, ptr noundef nonnull @.str.16, ptr noundef nonnull @.str.25, i64 noundef %4, i64 noundef %5)
  br label %8

8:                                                ; preds = %6, %7
  %.0 = phi i32 [ 0, %7 ], [ 1, %6 ]
  ret i32 %.0
}